; Function Attrs: mustprogress uwtable
define void @_ZN9grpc_core19ChannelStackBuilder13PrependFilterEPK19grpc_channel_filter(ptr noundef nonnull align 8 dereferenceable(88) %this, ptr noundef %filter) local_unnamed_addr #3 align 2 {
entry:
  %filter.addr = alloca ptr, align 8
  store ptr %filter, ptr %filter.addr, align 8
  %stack_ = getelementptr inbounds i8, ptr %this, i64 64
  %0 = load ptr, ptr %stack_, align 8
  %call4 = call ptr @_ZNSt6vectorIPK19grpc_channel_filterSaIS2_EE6insertEN9__gnu_cxx17__normal_iteratorIPKS2_S4_EERS7_(ptr noundef nonnull align 8 dereferenceable(24) %stack_, ptr %0, ptr noundef nonnull align 8 dereferenceable(8) %filter.addr)
  ret void
}